target datalayout = "e-m:e-p270:32:32-p271:32:32-p272:64:64-i64:64-i128:128-f80:128-n8:16:32:64-S128"
target triple = "x86_64-unknown-linux-gnu"

%struct.listNode = type { ptr, ptr, ptr }
%struct.client = type { i64, i64, ptr, i32, ptr, ptr, ptr, ptr, ptr, i64, i64, i32, ptr, i32, i32, ptr, i64, ptr, ptr, ptr, ptr, i32, i32, i64, ptr, i64, ptr, i64, i64, i64, i32, ptr, i64, i64, i32, i32, i32, i32, i64, i64, ptr, i64, i64, i64, i64, i64, i64, i64, i64, [41 x i8], i32, ptr, i32, i32, %struct.multiState, %struct.blockingState, i64, ptr, ptr, ptr, ptr, ptr, ptr, ptr, ptr, ptr, ptr, ptr, ptr, ptr, ptr, i64, ptr, i64, i32, ptr, ptr, ptr, i64, %struct.listNode, i64, i64, i32, i64, ptr }
%struct.multiState = type { ptr, i32, i32, i32, i64, i32 }
%struct.blockingState = type { i32, i64, i32, ptr, i32, i32, i64, ptr, ptr }

@ClientsPeakMemInput = dso_local global [8 x i64] zeroinitializer, align 16
@ClientsPeakMemOutput = dso_local global [8 x i64] zeroinitializer, align 16

; Function Attrs: nounwind uwtable
define dso_local i32 @clientsCronTrackExpansiveClients(ptr noundef %c, i32 noundef %time_idx) #0 {
entry:
  %c.addr = alloca ptr, align 8
  %time_idx.addr = alloca i32, align 4
  %in_usage = alloca i64, align 8
  %out_usage = alloca i64, align 8
  store ptr %c, ptr %c.addr, align 8
  store i32 %time_idx, ptr %time_idx.addr, align 4
  %0 = load ptr, ptr %c.addr, align 8
  %querybuf = getelementptr inbounds %struct.client, ptr %0, i32 0, i32 8
  %1 = load ptr, ptr %querybuf, align 8
  %call = call i64 @sdsZmallocSize(ptr noundef %1)
  %2 = load ptr, ptr %c.addr, align 8
  %argv_len_sum = getelementptr inbounds %struct.client, ptr %2, i32 0, i32 16
  %3 = load i64, ptr %argv_len_sum, align 8
  %add = add i64 %call, %3
  %4 = load ptr, ptr %c.addr, align 8
  %argv = getelementptr inbounds %struct.client, ptr %4, i32 0, i32 12
  %5 = load ptr, ptr %argv, align 8
  %tobool = icmp ne ptr %5, null
  br i1 %tobool, label %cond.true, label %cond.false

cond.true:                                        ; preds = %entry
  %6 = load ptr, ptr %c.addr, align 8
  %argv1 = getelementptr inbounds %struct.client, ptr %6, i32 0, i32 12
  %7 = load ptr, ptr %argv1, align 8
  %call2 = call i64 @je_malloc_usable_size(ptr noundef %7) #13
  br label %cond.end

cond.false:                                       ; preds = %entry
  br label %cond.end

cond.end:                                         ; preds = %cond.false, %cond.true
  %cond = phi i64 [ %call2, %cond.true ], [ 0, %cond.false ]
  %add3 = add i64 %add, %cond
  store i64 %add3, ptr %in_usage, align 8
  %8 = load ptr, ptr %c.addr, align 8
  %call4 = call i64 @getClientOutputBufferMemoryUsage(ptr noundef %8)
  store i64 %call4, ptr %out_usage, align 8
  %9 = load i64, ptr %in_usage, align 8
  %10 = load i32, ptr %time_idx.addr, align 4
  %idxprom = sext i32 %10 to i64
  %arrayidx = getelementptr inbounds [8 x i64], ptr @ClientsPeakMemInput, i64 0, i64 %idxprom
  %11 = load i64, ptr %arrayidx, align 8
  %cmp = icmp ugt i64 %9, %11
  br i1 %cmp, label %if.then, label %if.end

if.then:                                          ; preds = %cond.end
  %12 = load i64, ptr %in_usage, align 8
  %13 = load i32, ptr %time_idx.addr, align 4
  %idxprom5 = sext i32 %13 to i64
  %arrayidx6 = getelementptr inbounds [8 x i64], ptr @ClientsPeakMemInput, i64 0, i64 %idxprom5
  store i64 %12, ptr %arrayidx6, align 8
  br label %if.end

if.end:                                           ; preds = %if.then, %cond.end
  %14 = load i64, ptr %out_usage, align 8
  %15 = load i32, ptr %time_idx.addr, align 4
  %idxprom7 = sext i32 %15 to i64
  %arrayidx8 = getelementptr inbounds [8 x i64], ptr @ClientsPeakMemOutput, i64 0, i64 %idxprom7
  %16 = load i64, ptr %arrayidx8, align 8
  %cmp9 = icmp ugt i64 %14, %16
  br i1 %cmp9, label %if.then10, label %if.end13

if.then10:                                        ; preds = %if.end
  %17 = load i64, ptr %out_usage, align 8
  %18 = load i32, ptr %time_idx.addr, align 4
  %idxprom11 = sext i32 %18 to i64
  %arrayidx12 = getelementptr inbounds [8 x i64], ptr @ClientsPeakMemOutput, i64 0, i64 %idxprom11
  store i64 %17, ptr %arrayidx12, align 8
  br label %if.end13

if.end13:                                         ; preds = %if.then10, %if.end
  ret i32 0
}