; Function Attrs: nounwind uwtable
define dso_local noundef i32 @clientsCronTrackExpansiveClients(ptr noundef %c, i32 noundef %time_idx) local_unnamed_addr #0 {
entry:
  %querybuf = getelementptr inbounds i8, ptr %c, i64 64
  %0 = load ptr, ptr %querybuf, align 8
  %call = tail call i64 @sdsZmallocSize(ptr noundef %0) #38
  %argv_len_sum = getelementptr inbounds i8, ptr %c, i64 120
  %1 = load i64, ptr %argv_len_sum, align 8
  %add = add i64 %1, %call
  %argv = getelementptr inbounds i8, ptr %c, i64 96
  %2 = load ptr, ptr %argv, align 8
  %tobool.not = icmp eq ptr %2, null
  br i1 %tobool.not, label %cond.end, label %cond.true

cond.true:                                        ; preds = %entry
  %call2 = tail call i64 @je_malloc_usable_size(ptr noundef nonnull %2) #38
  br label %cond.end

cond.end:                                         ; preds = %entry, %cond.true
  %cond = phi i64 [ %call2, %cond.true ], [ 0, %entry ]
  %add3 = add i64 %add, %cond
  %call4 = tail call i64 @getClientOutputBufferMemoryUsage(ptr noundef nonnull %c) #38
  %idxprom = sext i32 %time_idx to i64
  %arrayidx = getelementptr inbounds [8 x i64], ptr @ClientsPeakMemInput, i64 0, i64 %idxprom
  %3 = load i64, ptr %arrayidx, align 8
  %cmp = icmp ugt i64 %add3, %3
  br i1 %cmp, label %if.then, label %if.end

if.then:                                          ; preds = %cond.end
  store i64 %add3, ptr %arrayidx, align 8
  br label %if.end

if.end:                                           ; preds = %if.then, %cond.end
  %arrayidx8 = getelementptr inbounds [8 x i64], ptr @ClientsPeakMemOutput, i64 0, i64 %idxprom
  %4 = load i64, ptr %arrayidx8, align 8
  %cmp9 = icmp ugt i64 %call4, %4
  br i1 %cmp9, label %if.then10, label %if.end13

if.then10:                                        ; preds = %if.end
  store i64 %call4, ptr %arrayidx8, align 8
  br label %if.end13

if.end13:                                         ; preds = %if.then10, %if.end
  ret i32 0
}